target datalayout = "e-m:e-p270:32:32-p271:32:32-p272:64:64-i64:64-i128:128-f80:128-n8:16:32:64-S128"
target triple = "x86_64-pc-linux-gnu"

%struct.SDL_GPUBootstrap = type { ptr, ptr, ptr }

@backends = internal global [2 x ptr] [ptr @VulkanDriver, ptr null], align 16
@.str.380 = private unnamed_addr constant [27 x i8] c"SDL.gpu.device.create.name\00", align 1
@.str.381 = private unnamed_addr constant [32 x i8] c"Video subsystem not initialized\00", align 1
@.str.382 = private unnamed_addr constant [15 x i8] c"SDL_GPU_DRIVER\00", align 1
@.str.383 = private unnamed_addr constant [36 x i8] c"SDL_HINT_GPU_DRIVER %s unsupported!\00", align 1
@.str.384 = private unnamed_addr constant [36 x i8] c"No supported SDL_GPU backend found!\00", align 1

; Function Attrs: nounwind uwtable
define internal ptr @SDL_GPUSelectBackend(i32 noundef %0) #0 {
  %2 = alloca ptr, align 8
  %3 = alloca i32, align 4
  %4 = alloca i32, align 4
  %5 = alloca ptr, align 8
  %6 = alloca ptr, align 8
  %7 = alloca i32, align 4
  store i32 %0, ptr %3, align 4
  call void @llvm.lifetime.start.p0(i64 4, ptr %4) #6
  call void @llvm.lifetime.start.p0(i64 8, ptr %5) #6
  call void @llvm.lifetime.start.p0(i64 8, ptr %6) #6
  %8 = call ptr @SDL_GetVideoDevice()
  store ptr %8, ptr %6, align 8
  %9 = load ptr, ptr %6, align 8
  %10 = icmp eq ptr %9, null
  br i1 %10, label %11, label %13

11:                                               ; preds = %1
  %12 = call zeroext i1 (ptr, ...) @SDL_SetError_REAL(ptr noundef @.str.381)
  store ptr null, ptr %2, align 8
  store i32 1, ptr %7, align 4
  br label %91

13:                                               ; preds = %1
  %14 = call ptr @SDL_GetHint_REAL(ptr noundef @.str.382)
  store ptr %14, ptr %5, align 8
  %15 = load ptr, ptr %5, align 8
  %16 = icmp eq ptr %15, null
  br i1 %16, label %17, label %20

17:                                               ; preds = %13
  %18 = load i32, ptr %3, align 4
  %19 = call ptr @SDL_GetStringProperty_REAL(i32 noundef %18, ptr noundef @.str.380, ptr noundef null)
  store ptr %19, ptr %5, align 8
  br label %20

20:                                               ; preds = %17, %13
  %21 = load ptr, ptr %5, align 8
  %22 = icmp ne ptr %21, null
  br i1 %22, label %23, label %63

23:                                               ; preds = %20
  store i32 0, ptr %4, align 4
  br label %24

24:                                               ; preds = %57, %23
  %25 = load i32, ptr %4, align 4
  %26 = zext i32 %25 to i64
  %27 = getelementptr inbounds nuw [2 x ptr], ptr @backends, i64 0, i64 %26
  %28 = load ptr, ptr %27, align 8
  %29 = icmp ne ptr %28, null
  br i1 %29, label %30, label %60

30:                                               ; preds = %24
  %31 = load ptr, ptr %5, align 8
  %32 = load i32, ptr %4, align 4
  %33 = zext i32 %32 to i64
  %34 = getelementptr inbounds nuw [2 x ptr], ptr @backends, i64 0, i64 %33
  %35 = load ptr, ptr %34, align 8
  %36 = getelementptr inbounds nuw %struct.SDL_GPUBootstrap, ptr %35, i32 0, i32 0
  %37 = load ptr, ptr %36, align 8
  %38 = call i32 @SDL_strcasecmp_REAL(ptr noundef %31, ptr noundef %37)
  %39 = icmp eq i32 %38, 0
  br i1 %39, label %40, label %56

40:                                               ; preds = %30
  %41 = load i32, ptr %4, align 4
  %42 = zext i32 %41 to i64
  %43 = getelementptr inbounds nuw [2 x ptr], ptr @backends, i64 0, i64 %42
  %44 = load ptr, ptr %43, align 8
  %45 = getelementptr inbounds nuw %struct.SDL_GPUBootstrap, ptr %44, i32 0, i32 1
  %46 = load ptr, ptr %45, align 8
  %47 = load ptr, ptr %6, align 8
  %48 = load i32, ptr %3, align 4
  %49 = call zeroext i1 %46(ptr noundef %47, i32 noundef %48)
  br i1 %49, label %50, label %55

50:                                               ; preds = %40
  %51 = load i32, ptr %4, align 4
  %52 = zext i32 %51 to i64
  %53 = getelementptr inbounds nuw [2 x ptr], ptr @backends, i64 0, i64 %52
  %54 = load ptr, ptr %53, align 8
  store ptr %54, ptr %2, align 8
  store i32 1, ptr %7, align 4
  br label %91

55:                                               ; preds = %40
  br label %56

56:                                               ; preds = %55, %30
  br label %57

57:                                               ; preds = %56
  %58 = load i32, ptr %4, align 4
  %59 = add i32 %58, 1
  store i32 %59, ptr %4, align 4
  br label %24, !llvm.loop !17

60:                                               ; preds = %24
  %61 = load ptr, ptr %5, align 8
  %62 = call zeroext i1 (ptr, ...) @SDL_SetError_REAL(ptr noundef @.str.383, ptr noundef %61)
  store ptr null, ptr %2, align 8
  store i32 1, ptr %7, align 4
  br label %91

63:                                               ; preds = %20
  store i32 0, ptr %4, align 4
  br label %64

64:                                               ; preds = %86, %63
  %65 = load i32, ptr %4, align 4
  %66 = zext i32 %65 to i64
  %67 = getelementptr inbounds nuw [2 x ptr], ptr @backends, i64 0, i64 %66
  %68 = load ptr, ptr %67, align 8
  %69 = icmp ne ptr %68, null
  br i1 %69, label %70, label %89

70:                                               ; preds = %64
  %71 = load i32, ptr %4, align 4
  %72 = zext i32 %71 to i64
  %73 = getelementptr inbounds nuw [2 x ptr], ptr @backends, i64 0, i64 %72
  %74 = load ptr, ptr %73, align 8
  %75 = getelementptr inbounds nuw %struct.SDL_GPUBootstrap, ptr %74, i32 0, i32 1
  %76 = load ptr, ptr %75, align 8
  %77 = load ptr, ptr %6, align 8
  %78 = load i32, ptr %3, align 4
  %79 = call zeroext i1 %76(ptr noundef %77, i32 noundef %78)
  br i1 %79, label %80, label %85

80:                                               ; preds = %70
  %81 = load i32, ptr %4, align 4
  %82 = zext i32 %81 to i64
  %83 = getelementptr inbounds nuw [2 x ptr], ptr @backends, i64 0, i64 %82
  %84 = load ptr, ptr %83, align 8
  store ptr %84, ptr %2, align 8
  store i32 1, ptr %7, align 4
  br label %91

85:                                               ; preds = %70
  br label %86

86:                                               ; preds = %85
  %87 = load i32, ptr %4, align 4
  %88 = add i32 %87, 1
  store i32 %88, ptr %4, align 4
  br label %64, !llvm.loop !18

89:                                               ; preds = %64
  %90 = call zeroext i1 (ptr, ...) @SDL_SetError_REAL(ptr noundef @.str.384)
  store ptr null, ptr %2, align 8
  store i32 1, ptr %7, align 4
  br label %91

91:                                               ; preds = %89, %80, %60, %50, %11
  call void @llvm.lifetime.end.p0(i64 8, ptr %6) #6
  call void @llvm.lifetime.end.p0(i64 8, ptr %5) #6
  call void @llvm.lifetime.end.p0(i64 4, ptr %4) #6
  %92 = load ptr, ptr %2, align 8
  ret ptr %92
}