; Function Attrs: nounwind uwtable
define internal fastcc noundef ptr @SDL_GPUSelectBackend(i32 noundef %0) unnamed_addr #0 {
  %2 = tail call ptr @SDL_GetVideoDevice() #7
  %3 = icmp eq ptr %2, null
  br i1 %3, label %4, label %6

4:                                                ; preds = %1
  %5 = tail call zeroext i1 (ptr, ...) @SDL_SetError_REAL(ptr noundef nonnull @.str.381) #7
  br label %.loopexit

6:                                                ; preds = %1
  %7 = tail call ptr @SDL_GetHint_REAL(ptr noundef nonnull @.str.382) #7
  %8 = icmp eq ptr %7, null
  br i1 %8, label %9, label %.preheader27.preheader

9:                                                ; preds = %6
  %10 = tail call ptr @SDL_GetStringProperty_REAL(i32 noundef %0, ptr noundef nonnull @.str.380, ptr noundef null) #7
  %.not = icmp eq ptr %10, null
  br i1 %.not, label %.preheader.preheader, label %.preheader27.preheader

.preheader27.preheader:                           ; preds = %6, %9
  %.01940 = phi ptr [ %10, %9 ], [ %7, %6 ]
  %11 = load ptr, ptr @VulkanDriver, align 8
  %12 = tail call i32 @SDL_strcasecmp_REAL(ptr noundef nonnull %.01940, ptr noundef %11) #7
  %13 = icmp eq i32 %12, 0
  br i1 %13, label %16, label %19

.preheader.preheader:                             ; preds = %9
  %14 = load ptr, ptr getelementptr inbounds nuw (i8, ptr @VulkanDriver, i64 8), align 8
  %15 = tail call zeroext i1 %14(ptr noundef nonnull %2, i32 noundef %0) #7
  br i1 %15, label %.loopexit, label %21

16:                                               ; preds = %.preheader27.preheader
  %17 = load ptr, ptr getelementptr inbounds nuw (i8, ptr @VulkanDriver, i64 8), align 8
  %18 = tail call zeroext i1 %17(ptr noundef nonnull %2, i32 noundef %0) #7
  br i1 %18, label %.loopexit, label %19

19:                                               ; preds = %.preheader27.preheader, %16
  %20 = tail call zeroext i1 (ptr, ...) @SDL_SetError_REAL(ptr noundef nonnull @.str.383, ptr noundef nonnull %.01940) #7
  br label %.loopexit

21:                                               ; preds = %.preheader.preheader
  %22 = tail call zeroext i1 (ptr, ...) @SDL_SetError_REAL(ptr noundef nonnull @.str.384) #7
  br label %.loopexit

.loopexit:                                        ; preds = %16, %.preheader.preheader, %21, %19, %4
  %.0 = phi ptr [ null, %4 ], [ null, %19 ], [ null, %21 ], [ @VulkanDriver, %.preheader.preheader ], [ @VulkanDriver, %16 ]
  ret ptr %.0
}